; Function Attrs: mustprogress nounwind uwtable
define hidden void @_ZN9Assembler12emit_operandE8Register7Addressi(ptr nocapture noundef nonnull readonly align 8 dereferenceable(40) %0, i32 %1, ptr noundef %2, i32 noundef %3) local_unnamed_addr #0 align 2 {
  %.sroa.01.0.copyload = load i32, ptr %2, align 8
  %5 = getelementptr inbounds i8, ptr %2, i64 4
  %.sroa.0.0.copyload = load i32, ptr %5, align 4
  %6 = getelementptr inbounds i8, ptr %2, i64 12
  %7 = load i32, ptr %6, align 4
  %8 = getelementptr inbounds i8, ptr %2, i64 16
  %9 = load i32, ptr %8, align 8
  %10 = getelementptr inbounds i8, ptr %2, i64 24
  %11 = sext i32 %1 to i64
  %12 = getelementptr inbounds %"class.Register::RegisterImpl", ptr getelementptr inbounds (i8, ptr @all_RegisterImpls, i64 1), i64 %11
  %13 = ptrtoint ptr %12 to i64
  %14 = trunc i64 %13 to i32
  %15 = sub i32 %14, ptrtoint (ptr getelementptr inbounds (i8, ptr @all_RegisterImpls, i64 1) to i32)
  %16 = sext i32 %.sroa.01.0.copyload to i64
  %17 = getelementptr inbounds %"class.Register::RegisterImpl", ptr getelementptr inbounds (i8, ptr @all_RegisterImpls, i64 1), i64 %16
  %18 = ptrtoint ptr %17 to i64
  %19 = trunc i64 %18 to i32
  %20 = sub i32 %19, ptrtoint (ptr getelementptr inbounds (i8, ptr @all_RegisterImpls, i64 1) to i32)
  %21 = sext i32 %.sroa.0.0.copyload to i64
  %22 = getelementptr inbounds %"class.Register::RegisterImpl", ptr getelementptr inbounds (i8, ptr @all_RegisterImpls, i64 1), i64 %21
  %23 = ptrtoint ptr %22 to i64
  %24 = trunc i64 %23 to i32
  %25 = sub i32 %24, ptrtoint (ptr getelementptr inbounds (i8, ptr @all_RegisterImpls, i64 1) to i32)
  tail call void @_ZN9Assembler19emit_operand_helperEiiiN7Address11ScaleFactorEiRK16RelocationHolderi(ptr noundef nonnull readonly align 8 dereferenceable(40) %0, i32 noundef %15, i32 noundef %20, i32 noundef %25, i32 noundef %7, i32 noundef %9, ptr noundef nonnull align 8 dereferenceable(40) %10, i32 noundef %3)
  ret void
}